target datalayout = "e-m:e-p270:32:32-p271:32:32-p272:64:64-i64:64-i128:128-f80:128-n8:16:32:64-S128"
target triple = "x86_64-pc-linux-gnu"

%struct.buf_t = type { i32, ptr, i32, i32, i8, i8 }

; Function Attrs: nounwind uwtable
define dso_local i32 @unpack8(ptr noundef %0, ptr noundef %1) #0 {
  %3 = alloca i32, align 4
  %4 = alloca ptr, align 8
  %5 = alloca ptr, align 8
  store ptr %0, ptr %4, align 8
  store ptr %1, ptr %5, align 8
  %6 = load ptr, ptr %5, align 8
  %7 = getelementptr inbounds nuw %struct.buf_t, ptr %6, i32 0, i32 2
  %8 = load i32, ptr %7, align 8
  %9 = load ptr, ptr %5, align 8
  %10 = getelementptr inbounds nuw %struct.buf_t, ptr %9, i32 0, i32 3
  %11 = load i32, ptr %10, align 4
  %12 = sub i32 %8, %11
  %13 = zext i32 %12 to i64
  %14 = icmp ult i64 %13, 1
  br i1 %14, label %15, label %16

15:                                               ; preds = %2
  store i32 -1, ptr %3, align 4
  br label %32

16:                                               ; preds = %2
  %17 = load ptr, ptr %4, align 8
  %18 = load ptr, ptr %5, align 8
  %19 = getelementptr inbounds nuw %struct.buf_t, ptr %18, i32 0, i32 1
  %20 = load ptr, ptr %19, align 8
  %21 = load ptr, ptr %5, align 8
  %22 = getelementptr inbounds nuw %struct.buf_t, ptr %21, i32 0, i32 3
  %23 = load i32, ptr %22, align 4
  %24 = zext i32 %23 to i64
  %25 = getelementptr inbounds nuw i8, ptr %20, i64 %24
  call void @llvm.memcpy.p0.p0.i64(ptr align 1 %17, ptr align 1 %25, i64 1, i1 false)
  %26 = load ptr, ptr %5, align 8
  %27 = getelementptr inbounds nuw %struct.buf_t, ptr %26, i32 0, i32 3
  %28 = load i32, ptr %27, align 4
  %29 = zext i32 %28 to i64
  %30 = add i64 %29, 1
  %31 = trunc i64 %30 to i32
  store i32 %31, ptr %27, align 4
  store i32 0, ptr %3, align 4
  br label %32

32:                                               ; preds = %16, %15
  %33 = load i32, ptr %3, align 4
  ret i32 %33
}

; Function Attrs: nounwind uwtable
define dso_local i32 @unpackbool(ptr noundef %0, ptr noundef %1) #0 {
  %3 = alloca i32, align 4
  %4 = alloca ptr, align 8
  %5 = alloca ptr, align 8
  %6 = alloca i8, align 1
  %7 = alloca i32, align 4
  store ptr %0, ptr %4, align 8
  store ptr %1, ptr %5, align 8
  call void @llvm.lifetime.start.p0(i64 1, ptr %6) #9
  store i8 0, ptr %6, align 1
  %8 = load ptr, ptr %5, align 8
  %9 = call i32 @unpack8(ptr noundef %6, ptr noundef %8)
  %10 = icmp ne i32 %9, 0
  br i1 %10, label %11, label %12

11:                                               ; preds = %2
  store i32 -1, ptr %3, align 4
  store i32 1, ptr %7, align 4
  br label %23

12:                                               ; preds = %2
  %13 = load i8, ptr %6, align 1
  %14 = icmp ne i8 %13, 0
  br i1 %14, label %15, label %20

15:                                               ; preds = %12
  %16 = load i8, ptr %6, align 1
  %17 = icmp ne i8 %16, 0
  %18 = load ptr, ptr %4, align 8
  %19 = zext i1 %17 to i8
  store i8 %19, ptr %18, align 1
  br label %22

20:                                               ; preds = %12
  %21 = load ptr, ptr %4, align 8
  store i8 0, ptr %21, align 1
  br label %22

22:                                               ; preds = %20, %15
  store i32 0, ptr %3, align 4
  store i32 1, ptr %7, align 4
  br label %23

23:                                               ; preds = %22, %11
  call void @llvm.lifetime.end.p0(i64 1, ptr %6) #9
  %24 = load i32, ptr %3, align 4
  ret i32 %24
}