; Function Attrs: mustprogress nofree norecurse nosync nounwind willreturn memory(read, argmem: readwrite, inaccessiblemem: none) uwtable
define dso_local range(i32 -1, 1) i32 @unpackbool(ptr noundef writeonly captures(none) %0, ptr noundef captures(none) %1) #1 {
  %3 = getelementptr inbounds nuw i8, ptr %1, i64 16
  %4 = load i32, ptr %3, align 8
  %5 = getelementptr inbounds nuw i8, ptr %1, i64 20
  %6 = load i32, ptr %5, align 4
  %7 = icmp eq i32 %4, %6
  br i1 %7, label %unpack8.exit, label %8

8:                                                ; preds = %2
  %9 = getelementptr inbounds nuw i8, ptr %1, i64 8
  %10 = load ptr, ptr %9, align 8
  %11 = zext i32 %6 to i64
  %12 = getelementptr inbounds nuw i8, ptr %10, i64 %11
  %13 = load i8, ptr %12, align 1
  %14 = add i32 %6, 1
  store i32 %14, ptr %5, align 4
  %.not3 = icmp ne i8 %13, 0
  %. = zext i1 %.not3 to i8
  store i8 %., ptr %0, align 1
  br label %unpack8.exit

unpack8.exit:                                     ; preds = %2, %8
  %.0 = phi i32 [ 0, %8 ], [ -1, %2 ]
  ret i32 %.0
}